ARM GAS  C:\Users\bernde\AppData\Local\Temp\ccIRp29E.s 			page 1


   1              		.syntax unified
   2              		.cpu cortex-m0
   3              		.fpu softvfp
   4              		.eabi_attribute 20, 1
   5              		.eabi_attribute 21, 1
   6              		.eabi_attribute 23, 3
   7              		.eabi_attribute 24, 1
   8              		.eabi_attribute 25, 1
   9              		.eabi_attribute 26, 1
  10              		.eabi_attribute 30, 6
  11              		.eabi_attribute 34, 0
  12              		.eabi_attribute 18, 4
  13              		.thumb
  14              		.syntax unified
  15              		.file	"HandleLowPower.c"
  16              		.text
  17              	.Ltext0:
  18              		.cfi_sections	.debug_frame
  19              		.section	.text.HandleLowPowerMode,"ax",%progbits
  20              		.align	2
  21              		.global	HandleLowPowerMode
  22              		.code	16
  23              		.thumb_func
  24              		.type	HandleLowPowerMode, %function
  25              	HandleLowPowerMode:
  26              	.LFB35:
  27              		.file 1 "HandleLowPower.c"
   1:HandleLowPower.c **** /******************************************************************************
   2:HandleLowPower.c **** * Project Name		: PSoC_4_BLE_Mouse_Slider_LED
   3:HandleLowPower.c **** * File Name			: HandleLowPower.c
   4:HandleLowPower.c **** * Version 			: 1.0
   5:HandleLowPower.c **** * Device Used		: CY8C4247LQI-BL483
   6:HandleLowPower.c **** * Software Used		: PSoC Creator 3.3 SP1
   7:HandleLowPower.c **** * Compiler    		: ARM GCC 4.9.3, ARM MDK Generic
   8:HandleLowPower.c **** * Related Hardware	: CY8CKIT-042-BLE Bluetooth Low Energy Pioneer Kit 
   9:HandleLowPower.c **** * Owner             : ROIT
  10:HandleLowPower.c **** *
  11:HandleLowPower.c **** ********************************************************************************
  12:HandleLowPower.c **** * Copyright (2015-16), Cypress Semiconductor Corporation. All Rights Reserved.
  13:HandleLowPower.c **** ********************************************************************************
  14:HandleLowPower.c **** * This software is owned by Cypress Semiconductor Corporation (Cypress)
  15:HandleLowPower.c **** * and is protected by and subject to worldwide patent protection (United
  16:HandleLowPower.c **** * States and foreign), United States copyright laws and international treaty
  17:HandleLowPower.c **** * provisions. Cypress hereby grants to licensee a personal, non-exclusive,
  18:HandleLowPower.c **** * non-transferable license to copy, use, modify, create derivative works of,
  19:HandleLowPower.c **** * and compile the Cypress Source Code and derivative works for the sole
  20:HandleLowPower.c **** * purpose of creating custom software in support of licensee product to be
  21:HandleLowPower.c **** * used only in conjunction with a Cypress integrated circuit as specified in
  22:HandleLowPower.c **** * the applicable agreement. Any reproduction, modification, translation,
  23:HandleLowPower.c **** * compilation, or representation of this software except as specified above 
  24:HandleLowPower.c **** * is prohibited without the express written permission of Cypress.
  25:HandleLowPower.c **** *
  26:HandleLowPower.c **** * Disclaimer: CYPRESS MAKES NO WARRANTY OF ANY KIND, EXPRESS OR IMPLIED, WITH 
  27:HandleLowPower.c **** * REGARD TO THIS MATERIAL, INCLUDING, BUT NOT LIMITED TO, THE IMPLIED 
  28:HandleLowPower.c **** * WARRANTIES OF MERCHANTABILITY AND FITNESS FOR A PARTICULAR PURPOSE.
  29:HandleLowPower.c **** * Cypress reserves the right to make changes without further notice to the 
  30:HandleLowPower.c **** * materials described herein. Cypress does not assume any liability arising out 
ARM GAS  C:\Users\bernde\AppData\Local\Temp\ccIRp29E.s 			page 2


  31:HandleLowPower.c **** * of the application or use of any product or circuit described herein. Cypress 
  32:HandleLowPower.c **** * does not authorize its products for use as critical components in life-support 
  33:HandleLowPower.c **** * systems where a malfunction or failure may reasonably be expected to result in 
  34:HandleLowPower.c **** * significant injury to the user. The inclusion of Cypress' product in a life-
  35:HandleLowPower.c **** * support systems application implies that the manufacturer assumes all risk of 
  36:HandleLowPower.c **** * such use and in doing so indemnifies Cypress against all charges. 
  37:HandleLowPower.c **** *
  38:HandleLowPower.c **** * Use of this Software may be limited by and subject to the applicable Cypress
  39:HandleLowPower.c **** * software license agreement. 
  40:HandleLowPower.c **** *******************************************************************************/
  41:HandleLowPower.c **** #include <main.h>
  42:HandleLowPower.c **** 
  43:HandleLowPower.c **** /* This flag is used by application to know whether a Central 
  44:HandleLowPower.c **** * device has been connected. This is updated in BLE event callback 
  45:HandleLowPower.c **** * function*/
  46:HandleLowPower.c **** extern uint8 deviceConnected;
  47:HandleLowPower.c **** 
  48:HandleLowPower.c **** /*******************************************************************************
  49:HandleLowPower.c **** * Function Name: HandleLowPowerMode
  50:HandleLowPower.c **** ********************************************************************************
  51:HandleLowPower.c **** * Summary:
  52:HandleLowPower.c **** *        This function puts the BLESS in deep sleep mode and CPU to sleep mode. 
  53:HandleLowPower.c **** * System will resume from here when it wakes from user button press.
  54:HandleLowPower.c **** *
  55:HandleLowPower.c **** * Parameters:
  56:HandleLowPower.c **** *  void
  57:HandleLowPower.c **** *
  58:HandleLowPower.c **** * Return:
  59:HandleLowPower.c **** *  void
  60:HandleLowPower.c **** *
  61:HandleLowPower.c **** *******************************************************************************/
  62:HandleLowPower.c **** void HandleLowPowerMode(void)
  63:HandleLowPower.c **** {
  28              		.loc 1 63 0
  29              		.cfi_startproc
  30              		@ args = 0, pretend = 0, frame = 8
  31              		@ frame_needed = 1, uses_anonymous_args = 0
  32 0000 90B5     		push	{r4, r7, lr}
  33              		.cfi_def_cfa_offset 12
  34              		.cfi_offset 4, -12
  35              		.cfi_offset 7, -8
  36              		.cfi_offset 14, -4
  37 0002 83B0     		sub	sp, sp, #12
  38              		.cfi_def_cfa_offset 24
  39 0004 00AF     		add	r7, sp, #0
  40              		.cfi_def_cfa_register 7
  64:HandleLowPower.c **** 	#ifdef ENABLE_LOW_POWER_MODE
  65:HandleLowPower.c **** 		/* Local variable to store the status of BLESS Hardware block */
  66:HandleLowPower.c **** 		CYBLE_LP_MODE_T sleepMode;
  67:HandleLowPower.c **** 		CYBLE_BLESS_STATE_T blessState;
  68:HandleLowPower.c **** 		
  69:HandleLowPower.c **** 		#ifdef Mouse_ENABLED
  70:HandleLowPower.c **** 		/* Put Mouse to Sleep*/
  71:HandleLowPower.c **** 		Mouse_Sleep();
  72:HandleLowPower.c **** 		#endif
  73:HandleLowPower.c **** 		
  74:HandleLowPower.c **** 		/* Put BLESS into Deep Sleep and check the return status */
ARM GAS  C:\Users\bernde\AppData\Local\Temp\ccIRp29E.s 			page 3


  75:HandleLowPower.c **** 		sleepMode = CyBle_EnterLPM(CYBLE_BLESS_DEEPSLEEP);
  41              		.loc 1 75 0
  42 0006 FC1D     		adds	r4, r7, #7
  43 0008 0320     		movs	r0, #3
  44 000a FFF7FEFF 		bl	CyBle_EnterLPM
  45 000e 0300     		movs	r3, r0
  46 0010 2370     		strb	r3, [r4]
  76:HandleLowPower.c **** 		
  77:HandleLowPower.c **** 		/* Disable global interrupt to prevent changes from any other interrupt ISR */
  78:HandleLowPower.c **** 		CyGlobalIntDisable;
  47              		.loc 1 78 0
  48              		.syntax divided
  49              	@ 78 "HandleLowPower.c" 1
  50 0012 72B6     		CPSID   i
  51              	@ 0 "" 2
  79:HandleLowPower.c **** 	
  80:HandleLowPower.c **** 		/* Check the Status of BLESS */
  81:HandleLowPower.c **** 		blessState = CyBle_GetBleSsState();
  52              		.loc 1 81 0
  53              		.thumb
  54              		.syntax unified
  55 0014 BC1D     		adds	r4, r7, #6
  56 0016 FFF7FEFF 		bl	CyBle_GetBleSsState
  57 001a 0300     		movs	r3, r0
  58 001c 2370     		strb	r3, [r4]
  82:HandleLowPower.c **** 
  83:HandleLowPower.c **** 		if(sleepMode == CYBLE_BLESS_DEEPSLEEP)
  59              		.loc 1 83 0
  60 001e FB1D     		adds	r3, r7, #7
  61 0020 1B78     		ldrb	r3, [r3]
  62 0022 032B     		cmp	r3, #3
  63 0024 0AD1     		bne	.L2
  84:HandleLowPower.c **** 		{
  85:HandleLowPower.c **** 		    /* If the ECO has started or the BLESS can go to Deep Sleep, then place CPU 
  86:HandleLowPower.c **** 			* to Deep Sleep */
  87:HandleLowPower.c **** 			if(blessState == CYBLE_BLESS_STATE_ECO_ON || blessState == CYBLE_BLESS_STATE_DEEPSLEEP)
  64              		.loc 1 87 0
  65 0026 BB1D     		adds	r3, r7, #6
  66 0028 1B78     		ldrb	r3, [r3]
  67 002a 042B     		cmp	r3, #4
  68 002c 03D0     		beq	.L3
  69              		.loc 1 87 0 is_stmt 0 discriminator 1
  70 002e BB1D     		adds	r3, r7, #6
  71 0030 1B78     		ldrb	r3, [r3]
  72 0032 062B     		cmp	r3, #6
  73 0034 08D1     		bne	.L5
  74              	.L3:
  88:HandleLowPower.c **** 		    {
  89:HandleLowPower.c **** //				if(TRUE == deviceConnected)
  90:HandleLowPower.c **** //				{
  91:HandleLowPower.c **** //					// PWM für WheelLed braucht den Clock also nur sleep
  92:HandleLowPower.c **** //					//CySysClkWriteImoFreq(IMO_FREQUENCY_3MHZ);
  93:HandleLowPower.c **** //					CySysPmSleep();
  94:HandleLowPower.c **** //					//CySysClkWriteImoFreq(IMO_FREQUENCY_12MHZ);
  95:HandleLowPower.c **** //				}
  96:HandleLowPower.c **** //				else
  97:HandleLowPower.c **** //				{
ARM GAS  C:\Users\bernde\AppData\Local\Temp\ccIRp29E.s 			page 4


  98:HandleLowPower.c **** //					// Place CPU to Deep sleep only when we are not connected 
  99:HandleLowPower.c **** //					// PWM für WheelLed braucht den Clock
 100:HandleLowPower.c **** //			        CySysPmDeepSleep();
 101:HandleLowPower.c **** //				}
 102:HandleLowPower.c ****                 
 103:HandleLowPower.c ****                 CySysPmDeepSleep();
  75              		.loc 1 103 0 is_stmt 1
  76 0036 FFF7FEFF 		bl	CySysPmDeepSleep
  77 003a 05E0     		b	.L5
  78              	.L2:
 104:HandleLowPower.c **** 		 	}
 105:HandleLowPower.c **** 		}
 106:HandleLowPower.c **** 		else
 107:HandleLowPower.c **** 		{
 108:HandleLowPower.c **** 		    if(blessState != CYBLE_BLESS_STATE_EVENT_CLOSE)
  79              		.loc 1 108 0
  80 003c BB1D     		adds	r3, r7, #6
  81 003e 1B78     		ldrb	r3, [r3]
  82 0040 022B     		cmp	r3, #2
  83 0042 01D0     		beq	.L5
 109:HandleLowPower.c **** 		    {
 110:HandleLowPower.c **** 				/* If the BLESS hardware block cannot go to Deep Sleep and BLE Event has not 
 111:HandleLowPower.c **** 				* closed yet, then place CPU to Sleep */
 112:HandleLowPower.c **** 		        CySysPmSleep();
  84              		.loc 1 112 0
  85 0044 FFF7FEFF 		bl	CySysPmSleep
  86              	.L5:
 113:HandleLowPower.c **** 		    }
 114:HandleLowPower.c **** 		}
 115:HandleLowPower.c **** 		
 116:HandleLowPower.c **** 		/* Re-enable global interrupt mask after wakeup */
 117:HandleLowPower.c **** 		CyGlobalIntEnable;
  87              		.loc 1 117 0
  88              		.syntax divided
  89              	@ 117 "HandleLowPower.c" 1
  90 0048 62B6     		CPSIE   i
  91              	@ 0 "" 2
 118:HandleLowPower.c **** 		
 119:HandleLowPower.c **** 		#ifdef Mouse_ENABLED
 120:HandleLowPower.c **** 		/* Wakeup Mouse Block */
 121:HandleLowPower.c **** 		Mouse_Wakeup();
 122:HandleLowPower.c **** 		#endif
 123:HandleLowPower.c **** 		
 124:HandleLowPower.c **** 	#endif
 125:HandleLowPower.c **** }
  92              		.loc 1 125 0
  93              		.thumb
  94              		.syntax unified
  95 004a C046     		nop
  96 004c BD46     		mov	sp, r7
  97 004e 03B0     		add	sp, sp, #12
  98              		@ sp needed
  99 0050 90BD     		pop	{r4, r7, pc}
 100              		.cfi_endproc
 101              	.LFE35:
 102              		.size	HandleLowPowerMode, .-HandleLowPowerMode
 103 0052 C046     		.text
ARM GAS  C:\Users\bernde\AppData\Local\Temp\ccIRp29E.s 			page 5


 104              	.Letext0:
 105              		.file 2 "Generated_Source\\PSoC4/BLE_Stack.h"