ARM GAS  C:\Users\bernde\AppData\Local\Temp\cceZdZhp.s 			page 1


   1              		.syntax unified
   2              		.cpu cortex-m0
   3              		.fpu softvfp
   4              		.eabi_attribute 20, 1
   5              		.eabi_attribute 21, 1
   6              		.eabi_attribute 23, 3
   7              		.eabi_attribute 24, 1
   8              		.eabi_attribute 25, 1
   9              		.eabi_attribute 26, 1
  10              		.eabi_attribute 30, 6
  11              		.eabi_attribute 34, 0
  12              		.eabi_attribute 18, 4
  13              		.thumb
  14              		.syntax unified
  15              		.file	"MouseWheel.c"
  16              		.text
  17              	.Ltext0:
  18              		.cfi_sections	.debug_frame
  19              		.global	mbMouseWheelPosition
  20              		.bss
  21              		.type	mbMouseWheelPosition, %object
  22              		.size	mbMouseWheelPosition, 1
  23              	mbMouseWheelPosition:
  24 0000 00       		.space	1
  25              		.global	mbCurrentKeys
  26              		.type	mbCurrentKeys, %object
  27              		.size	mbCurrentKeys, 1
  28              	mbCurrentKeys:
  29 0001 00       		.space	1
  30              		.section	.text.MouseWheel_ISR,"ax",%progbits
  31              		.align	2
  32              		.global	MouseWheel_ISR
  33              		.code	16
  34              		.thumb_func
  35              		.type	MouseWheel_ISR, %function
  36              	MouseWheel_ISR:
  37              	.LFB35:
  38              		.file 1 "MouseWheel.c"
   1:MouseWheel.c  **** /* ========================================
   2:MouseWheel.c  ****  *
   3:MouseWheel.c  ****  * Copyright YOUR COMPANY, THE YEAR
   4:MouseWheel.c  ****  * All Rights Reserved
   5:MouseWheel.c  ****  * UNPUBLISHED, LICENSED SOFTWARE.
   6:MouseWheel.c  ****  *
   7:MouseWheel.c  ****  * CONFIDENTIAL AND PROPRIETARY INFORMATION
   8:MouseWheel.c  ****  * WHICH IS THE PROPERTY OF your company.
   9:MouseWheel.c  ****  *
  10:MouseWheel.c  ****  * ========================================
  11:MouseWheel.c  **** */
  12:MouseWheel.c  **** 
  13:MouseWheel.c  **** #include <MouseWheel.h>
  14:MouseWheel.c  **** 
  15:MouseWheel.c  **** volatile uint8 mbMouseWheelPosition = 0;
  16:MouseWheel.c  **** volatile uint8 mbCurrentKeys        = 0;
  17:MouseWheel.c  **** 
  18:MouseWheel.c  **** //========================================================================================
  19:MouseWheel.c  **** // in diesem Interrupt auch die Tasten abfragen, da die Grundschleife zeitlich zu ungenau
ARM GAS  C:\Users\bernde\AppData\Local\Temp\cceZdZhp.s 			page 2


  20:MouseWheel.c  **** //========================================================================================
  21:MouseWheel.c  **** //                                           LFCLK     PWM-Teiler (8-Bit)
  22:MouseWheel.c  **** // Dieser IRQ wird mit ca. 128Hz aufgerufen (32768Hz / 256)
  23:MouseWheel.c  **** // Um die Tasten auch zu entprellen nur jedes 4 mal diese Prüfen -> 32ms abfragen
  24:MouseWheel.c  **** //========================================================================================
  25:MouseWheel.c  **** CY_ISR(MouseWheel_ISR)
  26:MouseWheel.c  **** {
  39              		.loc 1 26 0
  40              		.cfi_startproc
  41              		@ args = 0, pretend = 0, frame = 8
  42              		@ frame_needed = 1, uses_anonymous_args = 0
  43 0000 90B5     		push	{r4, r7, lr}
  44              		.cfi_def_cfa_offset 12
  45              		.cfi_offset 4, -12
  46              		.cfi_offset 7, -8
  47              		.cfi_offset 14, -4
  48 0002 83B0     		sub	sp, sp, #12
  49              		.cfi_def_cfa_offset 24
  50 0004 00AF     		add	r7, sp, #0
  51              		.cfi_def_cfa_register 7
  27:MouseWheel.c  ****     // Clear Interrupt Flags
  28:MouseWheel.c  ****     isr_Wheel_ClearPending();
  52              		.loc 1 28 0
  53 0006 FFF7FEFF 		bl	isr_Wheel_ClearPending
  29:MouseWheel.c  ****     PWM_ClearInterrupt(PWM_INTR_MASK_TC);
  54              		.loc 1 29 0
  55 000a 0120     		movs	r0, #1
  56 000c FFF7FEFF 		bl	PWM_ClearInterrupt
  30:MouseWheel.c  ****     //PWM_ReadStatusRegister();
  31:MouseWheel.c  ****     
  32:MouseWheel.c  ****     static const int8 bPhaseToDelta[16] = 
  33:MouseWheel.c  ****     {       // Index Alt - New     Delta
  34:MouseWheel.c  ****          0,  //  0     00  - 00   ->  0
  35:MouseWheel.c  ****          1,  //  1     00  - 01   -> +1
  36:MouseWheel.c  ****         -1,  //  2     00  - 10   -> -1
  37:MouseWheel.c  ****          0,  //  3     00  - 11   ->  0  (ilegalter schritt!!!)
  38:MouseWheel.c  ****         
  39:MouseWheel.c  ****         -1,  //  4     01  - 00   -> -1
  40:MouseWheel.c  ****          0,  //  5     01  - 01   ->  0
  41:MouseWheel.c  ****          0,  //  6     01  - 10   ->  0  (ilegalter schritt!!!)
  42:MouseWheel.c  ****          1,  //  7     01  - 11   ->  1  
  43:MouseWheel.c  ****         
  44:MouseWheel.c  ****          1,  //  8     10  - 00   -> +1
  45:MouseWheel.c  ****          0,  //  9     10  - 01   ->  0  (ilegalter schritt!!!)
  46:MouseWheel.c  ****          0,  // 10     10  - 10   ->  0 
  47:MouseWheel.c  ****         -1,  // 11     10  - 11   -> -1
  48:MouseWheel.c  ****         
  49:MouseWheel.c  ****          0,  // 12     11  - 00   ->  0  (ilegalter schritt!!!)
  50:MouseWheel.c  ****         -1,  // 13     11  - 01   -> -1
  51:MouseWheel.c  ****         +1,  // 14     11  - 10   -> +1 
  52:MouseWheel.c  ****          0,  // 15     11  - 11   ->  0
  53:MouseWheel.c  ****     };
  54:MouseWheel.c  **** 
  55:MouseWheel.c  ****     static uint8 bLastPhase;
  56:MouseWheel.c  ****     
  57:MouseWheel.c  ****     uint8 bCurPhase = WheelPhaseAB_Read();
  57              		.loc 1 57 0
ARM GAS  C:\Users\bernde\AppData\Local\Temp\cceZdZhp.s 			page 3


  58 0010 FC1D     		adds	r4, r7, #7
  59 0012 FFF7FEFF 		bl	WheelPhaseAB_Read
  60 0016 0300     		movs	r3, r0
  61 0018 2370     		strb	r3, [r4]
  58:MouseWheel.c  ****     
  59:MouseWheel.c  ****     if(bLastPhase != bCurPhase)
  62              		.loc 1 59 0
  63 001a 264B     		ldr	r3, .L7
  64 001c 1B78     		ldrb	r3, [r3]
  65 001e FA1D     		adds	r2, r7, #7
  66 0020 1278     		ldrb	r2, [r2]
  67 0022 9A42     		cmp	r2, r3
  68 0024 13D0     		beq	.L2
  60:MouseWheel.c  ****     {
  61:MouseWheel.c  ****         // Phasen haben sich geändert -> Counter entsprechend anpassen
  62:MouseWheel.c  ****         mbMouseWheelPosition += bPhaseToDelta[(bLastPhase<<2) | bCurPhase];
  69              		.loc 1 62 0
  70 0026 234B     		ldr	r3, .L7
  71 0028 1B78     		ldrb	r3, [r3]
  72 002a 9A00     		lsls	r2, r3, #2
  73 002c FB1D     		adds	r3, r7, #7
  74 002e 1B78     		ldrb	r3, [r3]
  75 0030 1343     		orrs	r3, r2
  76 0032 214A     		ldr	r2, .L7+4
  77 0034 D356     		ldrsb	r3, [r2, r3]
  78 0036 DAB2     		uxtb	r2, r3
  79 0038 204B     		ldr	r3, .L7+8
  80 003a 1B78     		ldrb	r3, [r3]
  81 003c DBB2     		uxtb	r3, r3
  82 003e D318     		adds	r3, r2, r3
  83 0040 DAB2     		uxtb	r2, r3
  84 0042 1E4B     		ldr	r3, .L7+8
  85 0044 1A70     		strb	r2, [r3]
  63:MouseWheel.c  ****         bLastPhase = bCurPhase;
  86              		.loc 1 63 0
  87 0046 1B4B     		ldr	r3, .L7
  88 0048 FA1D     		adds	r2, r7, #7
  89 004a 1278     		ldrb	r2, [r2]
  90 004c 1A70     		strb	r2, [r3]
  91              	.L2:
  64:MouseWheel.c  ****     }
  65:MouseWheel.c  ****     
  66:MouseWheel.c  ****     static uint8 uiCounter=8;
  67:MouseWheel.c  ****     uiCounter--;
  92              		.loc 1 67 0
  93 004e 1C4B     		ldr	r3, .L7+12
  94 0050 1B78     		ldrb	r3, [r3]
  95 0052 013B     		subs	r3, r3, #1
  96 0054 DAB2     		uxtb	r2, r3
  97 0056 1A4B     		ldr	r3, .L7+12
  98 0058 1A70     		strb	r2, [r3]
  68:MouseWheel.c  ****     
  69:MouseWheel.c  ****     if (uiCounter==0)
  99              		.loc 1 69 0
 100 005a 194B     		ldr	r3, .L7+12
 101 005c 1B78     		ldrb	r3, [r3]
 102 005e 002B     		cmp	r3, #0
ARM GAS  C:\Users\bernde\AppData\Local\Temp\cceZdZhp.s 			page 4


 103 0060 24D1     		bne	.L6
  70:MouseWheel.c  ****     {
  71:MouseWheel.c  ****         uiCounter = 8;
 104              		.loc 1 71 0
 105 0062 174B     		ldr	r3, .L7+12
 106 0064 0822     		movs	r2, #8
 107 0066 1A70     		strb	r2, [r3]
  72:MouseWheel.c  ****         mbCurrentKeys = 0;
 108              		.loc 1 72 0
 109 0068 164B     		ldr	r3, .L7+16
 110 006a 0022     		movs	r2, #0
 111 006c 1A70     		strb	r2, [r3]
  73:MouseWheel.c  ****         if (Left_Button_Read() == 0)
 112              		.loc 1 73 0
 113 006e FFF7FEFF 		bl	Left_Button_Read
 114 0072 031E     		subs	r3, r0, #0
 115 0074 02D1     		bne	.L4
  74:MouseWheel.c  ****             mbCurrentKeys = 1;
 116              		.loc 1 74 0
 117 0076 134B     		ldr	r3, .L7+16
 118 0078 0122     		movs	r2, #1
 119 007a 1A70     		strb	r2, [r3]
 120              	.L4:
  75:MouseWheel.c  ****         if (Mid_Button_Read() == 0)
 121              		.loc 1 75 0
 122 007c FFF7FEFF 		bl	Mid_Button_Read
 123 0080 031E     		subs	r3, r0, #0
 124 0082 07D1     		bne	.L5
  76:MouseWheel.c  ****             mbCurrentKeys |= 2;
 125              		.loc 1 76 0
 126 0084 0F4B     		ldr	r3, .L7+16
 127 0086 1B78     		ldrb	r3, [r3]
 128 0088 DBB2     		uxtb	r3, r3
 129 008a 0222     		movs	r2, #2
 130 008c 1343     		orrs	r3, r2
 131 008e DAB2     		uxtb	r2, r3
 132 0090 0C4B     		ldr	r3, .L7+16
 133 0092 1A70     		strb	r2, [r3]
 134              	.L5:
  77:MouseWheel.c  ****         if (Right_Button_Read() == 0)
 135              		.loc 1 77 0
 136 0094 FFF7FEFF 		bl	Right_Button_Read
 137 0098 031E     		subs	r3, r0, #0
 138 009a 07D1     		bne	.L6
  78:MouseWheel.c  ****             mbCurrentKeys |= 4;    
 139              		.loc 1 78 0
 140 009c 094B     		ldr	r3, .L7+16
 141 009e 1B78     		ldrb	r3, [r3]
 142 00a0 DBB2     		uxtb	r3, r3
 143 00a2 0422     		movs	r2, #4
 144 00a4 1343     		orrs	r3, r2
 145 00a6 DAB2     		uxtb	r2, r3
 146 00a8 064B     		ldr	r3, .L7+16
 147 00aa 1A70     		strb	r2, [r3]
 148              	.L6:
  79:MouseWheel.c  ****     }
  80:MouseWheel.c  **** }
ARM GAS  C:\Users\bernde\AppData\Local\Temp\cceZdZhp.s 			page 5


 149              		.loc 1 80 0
 150 00ac C046     		nop
 151 00ae BD46     		mov	sp, r7
 152 00b0 03B0     		add	sp, sp, #12
 153              		@ sp needed
 154 00b2 90BD     		pop	{r4, r7, pc}
 155              	.L8:
 156              		.align	2
 157              	.L7:
 158 00b4 02000000 		.word	bLastPhase.7611
 159 00b8 00000000 		.word	bPhaseToDelta.7610
 160 00bc 00000000 		.word	mbMouseWheelPosition
 161 00c0 00000000 		.word	uiCounter.7613
 162 00c4 00000000 		.word	mbCurrentKeys
 163              		.cfi_endproc
 164              	.LFE35:
 165              		.size	MouseWheel_ISR, .-MouseWheel_ISR
 166              		.section	.text.MouseWheel_Start,"ax",%progbits
 167              		.align	2
 168              		.global	MouseWheel_Start
 169              		.code	16
 170              		.thumb_func
 171              		.type	MouseWheel_Start, %function
 172              	MouseWheel_Start:
 173              	.LFB36:
  81:MouseWheel.c  **** 
  82:MouseWheel.c  **** void  MouseWheel_Start(void)
  83:MouseWheel.c  **** {
 174              		.loc 1 83 0
 175              		.cfi_startproc
 176              		@ args = 0, pretend = 0, frame = 0
 177              		@ frame_needed = 1, uses_anonymous_args = 0
 178 0000 80B5     		push	{r7, lr}
 179              		.cfi_def_cfa_offset 8
 180              		.cfi_offset 7, -8
 181              		.cfi_offset 14, -4
 182 0002 00AF     		add	r7, sp, #0
 183              		.cfi_def_cfa_register 7
  84:MouseWheel.c  ****     WHEEL_LED_ON;
 184              		.loc 1 84 0
 185 0004 0620     		movs	r0, #6
 186 0006 FFF7FEFF 		bl	Wheel_LED_SetDriveMode
  85:MouseWheel.c  ****     //PWM_RestoreConfig();
  86:MouseWheel.c  ****     //PWM_Enable();
  87:MouseWheel.c  ****     Clock_1_Start();
 187              		.loc 1 87 0
 188 000a FF20     		movs	r0, #255
 189 000c FFF7FEFF 		bl	Clock_1_StartEx
  88:MouseWheel.c  ****     PWM_Start();
 190              		.loc 1 88 0
 191 0010 FFF7FEFF 		bl	PWM_Start
  89:MouseWheel.c  ****     isr_Wheel_ClearPending();
 192              		.loc 1 89 0
 193 0014 FFF7FEFF 		bl	isr_Wheel_ClearPending
  90:MouseWheel.c  ****     isr_Wheel_StartEx(MouseWheel_ISR);  
 194              		.loc 1 90 0
 195 0018 044B     		ldr	r3, .L10
ARM GAS  C:\Users\bernde\AppData\Local\Temp\cceZdZhp.s 			page 6


 196 001a 1800     		movs	r0, r3
 197 001c FFF7FEFF 		bl	isr_Wheel_StartEx
  91:MouseWheel.c  ****     GREEN_ON;
 198              		.loc 1 91 0
 199 0020 0620     		movs	r0, #6
 200 0022 FFF7FEFF 		bl	GREEN_SetDriveMode
  92:MouseWheel.c  **** }
 201              		.loc 1 92 0
 202 0026 C046     		nop
 203 0028 BD46     		mov	sp, r7
 204              		@ sp needed
 205 002a 80BD     		pop	{r7, pc}
 206              	.L11:
 207              		.align	2
 208              	.L10:
 209 002c 00000000 		.word	MouseWheel_ISR
 210              		.cfi_endproc
 211              	.LFE36:
 212              		.size	MouseWheel_Start, .-MouseWheel_Start
 213              		.section	.text.MouseWheel_Stop,"ax",%progbits
 214              		.align	2
 215              		.global	MouseWheel_Stop
 216              		.code	16
 217              		.thumb_func
 218              		.type	MouseWheel_Stop, %function
 219              	MouseWheel_Stop:
 220              	.LFB37:
  93:MouseWheel.c  **** 
  94:MouseWheel.c  **** void  MouseWheel_Stop(void)
  95:MouseWheel.c  **** {
 221              		.loc 1 95 0
 222              		.cfi_startproc
 223              		@ args = 0, pretend = 0, frame = 0
 224              		@ frame_needed = 1, uses_anonymous_args = 0
 225 0000 80B5     		push	{r7, lr}
 226              		.cfi_def_cfa_offset 8
 227              		.cfi_offset 7, -8
 228              		.cfi_offset 14, -4
 229 0002 00AF     		add	r7, sp, #0
 230              		.cfi_def_cfa_register 7
  96:MouseWheel.c  ****     WHEEL_LED_OFF;
 231              		.loc 1 96 0
 232 0004 0020     		movs	r0, #0
 233 0006 FFF7FEFF 		bl	Wheel_LED_SetDriveMode
  97:MouseWheel.c  ****     PWM_Stop();
 234              		.loc 1 97 0
 235 000a FFF7FEFF 		bl	PWM_Stop
  98:MouseWheel.c  ****     GREEN_OFF;
 236              		.loc 1 98 0
 237 000e 0020     		movs	r0, #0
 238 0010 FFF7FEFF 		bl	GREEN_SetDriveMode
  99:MouseWheel.c  **** }
 239              		.loc 1 99 0
 240 0014 C046     		nop
 241 0016 BD46     		mov	sp, r7
 242              		@ sp needed
 243 0018 80BD     		pop	{r7, pc}
ARM GAS  C:\Users\bernde\AppData\Local\Temp\cceZdZhp.s 			page 7


 244              		.cfi_endproc
 245              	.LFE37:
 246              		.size	MouseWheel_Stop, .-MouseWheel_Stop
 247 001a C046     		.section	.text.MouseWheel_GetPosition,"ax",%progbits
 248              		.align	2
 249              		.global	MouseWheel_GetPosition
 250              		.code	16
 251              		.thumb_func
 252              		.type	MouseWheel_GetPosition, %function
 253              	MouseWheel_GetPosition:
 254              	.LFB38:
 100:MouseWheel.c  **** 
 101:MouseWheel.c  **** uint8 MouseWheel_GetPosition(void)
 102:MouseWheel.c  **** {
 255              		.loc 1 102 0
 256              		.cfi_startproc
 257              		@ args = 0, pretend = 0, frame = 0
 258              		@ frame_needed = 1, uses_anonymous_args = 0
 259 0000 80B5     		push	{r7, lr}
 260              		.cfi_def_cfa_offset 8
 261              		.cfi_offset 7, -8
 262              		.cfi_offset 14, -4
 263 0002 00AF     		add	r7, sp, #0
 264              		.cfi_def_cfa_register 7
 103:MouseWheel.c  ****     return mbMouseWheelPosition;
 265              		.loc 1 103 0
 266 0004 024B     		ldr	r3, .L15
 267 0006 1B78     		ldrb	r3, [r3]
 268 0008 DBB2     		uxtb	r3, r3
 104:MouseWheel.c  **** }
 269              		.loc 1 104 0
 270 000a 1800     		movs	r0, r3
 271 000c BD46     		mov	sp, r7
 272              		@ sp needed
 273 000e 80BD     		pop	{r7, pc}
 274              	.L16:
 275              		.align	2
 276              	.L15:
 277 0010 00000000 		.word	mbMouseWheelPosition
 278              		.cfi_endproc
 279              	.LFE38:
 280              		.size	MouseWheel_GetPosition, .-MouseWheel_GetPosition
 281              		.section	.text.MouseWheel_GetKeys,"ax",%progbits
 282              		.align	2
 283              		.global	MouseWheel_GetKeys
 284              		.code	16
 285              		.thumb_func
 286              		.type	MouseWheel_GetKeys, %function
 287              	MouseWheel_GetKeys:
 288              	.LFB39:
 105:MouseWheel.c  **** 
 106:MouseWheel.c  **** uint8 MouseWheel_GetKeys(void)
 107:MouseWheel.c  **** {
 289              		.loc 1 107 0
 290              		.cfi_startproc
 291              		@ args = 0, pretend = 0, frame = 0
 292              		@ frame_needed = 1, uses_anonymous_args = 0
ARM GAS  C:\Users\bernde\AppData\Local\Temp\cceZdZhp.s 			page 8


 293 0000 80B5     		push	{r7, lr}
 294              		.cfi_def_cfa_offset 8
 295              		.cfi_offset 7, -8
 296              		.cfi_offset 14, -4
 297 0002 00AF     		add	r7, sp, #0
 298              		.cfi_def_cfa_register 7
 108:MouseWheel.c  ****     return mbCurrentKeys;
 299              		.loc 1 108 0
 300 0004 024B     		ldr	r3, .L19
 301 0006 1B78     		ldrb	r3, [r3]
 302 0008 DBB2     		uxtb	r3, r3
 109:MouseWheel.c  **** }
 303              		.loc 1 109 0
 304 000a 1800     		movs	r0, r3
 305 000c BD46     		mov	sp, r7
 306              		@ sp needed
 307 000e 80BD     		pop	{r7, pc}
 308              	.L20:
 309              		.align	2
 310              	.L19:
 311 0010 00000000 		.word	mbCurrentKeys
 312              		.cfi_endproc
 313              	.LFE39:
 314              		.size	MouseWheel_GetKeys, .-MouseWheel_GetKeys
 315              		.bss
 316              	bLastPhase.7611:
 317 0002 00       		.space	1
 318              		.section	.rodata
 319              		.align	2
 320              		.type	bPhaseToDelta.7610, %object
 321              		.size	bPhaseToDelta.7610, 16
 322              	bPhaseToDelta.7610:
 323 0000 00       		.byte	0
 324 0001 01       		.byte	1
 325 0002 FF       		.byte	-1
 326 0003 00       		.byte	0
 327 0004 FF       		.byte	-1
 328 0005 00       		.byte	0
 329 0006 00       		.byte	0
 330 0007 01       		.byte	1
 331 0008 01       		.byte	1
 332 0009 00       		.byte	0
 333 000a 00       		.byte	0
 334 000b FF       		.byte	-1
 335 000c 00       		.byte	0
 336 000d FF       		.byte	-1
 337 000e 01       		.byte	1
 338 000f 00       		.byte	0
 339              		.data
 340              		.type	uiCounter.7613, %object
 341              		.size	uiCounter.7613, 1
 342              	uiCounter.7613:
 343 0000 08       		.byte	8
 344              		.text
 345              	.Letext0:
 346              		.file 2 "Generated_Source\\PSoC4/cytypes.h"
 347              		.file 3 "Generated_Source\\PSoC4/BLE_Stack.h"
ARM GAS  C:\Users\bernde\AppData\Local\Temp\cceZdZhp.s 			page 9

